target datalayout = "e-m:e-p270:32:32-p271:32:32-p272:64:64-i64:64-i128:128-f80:128-n8:16:32:64-S128"
target triple = "x86_64-pc-linux-gnu"

@.str = private unnamed_addr constant [3 x i8] c"%d\00", align 1
@.str.1 = private unnamed_addr constant [3 x i8] c"%c\00", align 1
@.str.2 = private unnamed_addr constant [2 x i8] c"\0A\00", align 1
@.str.3 = private unnamed_addr constant [3 x i8] c"0x\00", align 1
@stdout = external global ptr, align 8
@.str.4 = private unnamed_addr constant [3 x i8] c", \00", align 1

; Function Attrs: nounwind uwtable
define void @Kit_PrintHexadecimal(ptr noundef %0, ptr noundef %1, i32 noundef %2) #0 {
  %4 = alloca ptr, align 8
  %5 = alloca ptr, align 8
  %6 = alloca i32, align 4
  %7 = alloca i32, align 4
  %8 = alloca i32, align 4
  %9 = alloca i32, align 4
  store ptr %0, ptr %4, align 8, !tbaa !178
  store ptr %1, ptr %5, align 8, !tbaa !3
  store i32 %2, ptr %6, align 4, !tbaa !8
  call void @llvm.lifetime.start.p0(i64 4, ptr %7) #8
  call void @llvm.lifetime.start.p0(i64 4, ptr %8) #8
  call void @llvm.lifetime.start.p0(i64 4, ptr %9) #8
  %10 = load i32, ptr %6, align 4, !tbaa !8
  %11 = shl i32 1, %10
  %12 = sdiv i32 %11, 4
  store i32 %12, ptr %7, align 4, !tbaa !8
  %13 = load i32, ptr %7, align 4, !tbaa !8
  %14 = sub nsw i32 %13, 1
  store i32 %14, ptr %9, align 4, !tbaa !8
  br label %15

15:                                               ; preds = %43, %3
  %16 = load i32, ptr %9, align 4, !tbaa !8
  %17 = icmp sge i32 %16, 0
  br i1 %17, label %18, label %46

18:                                               ; preds = %15
  %19 = load ptr, ptr %5, align 8, !tbaa !3
  %20 = load i32, ptr %9, align 4, !tbaa !8
  %21 = sdiv i32 %20, 8
  %22 = sext i32 %21 to i64
  %23 = getelementptr inbounds i32, ptr %19, i64 %22
  %24 = load i32, ptr %23, align 4, !tbaa !8
  %25 = load i32, ptr %9, align 4, !tbaa !8
  %26 = srem i32 %25, 8
  %27 = mul nsw i32 %26, 4
  %28 = lshr i32 %24, %27
  %29 = and i32 %28, 15
  store i32 %29, ptr %8, align 4, !tbaa !8
  %30 = load i32, ptr %8, align 4, !tbaa !8
  %31 = icmp slt i32 %30, 10
  br i1 %31, label %32, label %36

32:                                               ; preds = %18
  %33 = load ptr, ptr %4, align 8, !tbaa !178
  %34 = load i32, ptr %8, align 4, !tbaa !8
  %35 = call i32 (ptr, ptr, ...) @fprintf(ptr noundef %33, ptr noundef @.str, i32 noundef %34) #8
  br label %42

36:                                               ; preds = %18
  %37 = load ptr, ptr %4, align 8, !tbaa !178
  %38 = load i32, ptr %8, align 4, !tbaa !8
  %39 = add nsw i32 97, %38
  %40 = sub nsw i32 %39, 10
  %41 = call i32 (ptr, ptr, ...) @fprintf(ptr noundef %37, ptr noundef @.str.1, i32 noundef %40) #8
  br label %42

42:                                               ; preds = %36, %32
  br label %43

43:                                               ; preds = %42
  %44 = load i32, ptr %9, align 4, !tbaa !8
  %45 = add nsw i32 %44, -1
  store i32 %45, ptr %9, align 4, !tbaa !8
  br label %15, !llvm.loop !180

46:                                               ; preds = %15
  call void @llvm.lifetime.end.p0(i64 4, ptr %9) #8
  call void @llvm.lifetime.end.p0(i64 4, ptr %8) #8
  call void @llvm.lifetime.end.p0(i64 4, ptr %7) #8
  ret void
}

; Function Attrs: nounwind uwtable
define void @Kit_TruthCountMintermsPrecomp() #0 {
  %1 = alloca [256 x i32], align 16
  %2 = alloca i32, align 4
  %3 = alloca i32, align 4
  call void @llvm.lifetime.start.p0(i64 1024, ptr %1) #8
  call void @llvm.memcpy.p0.p0.i64(ptr align 16 %1, ptr align 16 @__const.Kit_TruthCountMintermsPrecomp.bit_count, i64 1024, i1 false)
  call void @llvm.lifetime.start.p0(i64 4, ptr %2) #8
  call void @llvm.lifetime.start.p0(i64 4, ptr %3) #8
  store i32 0, ptr %2, align 4, !tbaa !8
  br label %4

4:                                                ; preds = %45, %0
  %5 = load i32, ptr %2, align 4, !tbaa !8
  %6 = icmp ult i32 %5, 256
  br i1 %6, label %7, label %48

7:                                                ; preds = %4
  %8 = load i32, ptr %2, align 4, !tbaa !8
  %9 = urem i32 %8, 8
  %10 = icmp eq i32 %9, 0
  br i1 %10, label %11, label %13

11:                                               ; preds = %7
  %12 = call i32 (ptr, ...) @printf(ptr noundef @.str.2)
  br label %13

13:                                               ; preds = %11, %7
  %14 = load i32, ptr %2, align 4, !tbaa !8
  %15 = zext i32 %14 to i64
  %16 = getelementptr inbounds nuw [256 x i32], ptr %1, i64 0, i64 %15
  %17 = load i32, ptr %16, align 4, !tbaa !8
  store i32 %17, ptr %3, align 4, !tbaa !8
  %18 = load i32, ptr %2, align 4, !tbaa !8
  %19 = and i32 %18, 85
  %20 = zext i32 %19 to i64
  %21 = getelementptr inbounds nuw [256 x i32], ptr %1, i64 0, i64 %20
  %22 = load i32, ptr %21, align 4, !tbaa !8
  %23 = shl i32 %22, 8
  %24 = load i32, ptr %3, align 4, !tbaa !8
  %25 = or i32 %24, %23
  store i32 %25, ptr %3, align 4, !tbaa !8
  %26 = load i32, ptr %2, align 4, !tbaa !8
  %27 = and i32 %26, 51
  %28 = zext i32 %27 to i64
  %29 = getelementptr inbounds nuw [256 x i32], ptr %1, i64 0, i64 %28
  %30 = load i32, ptr %29, align 4, !tbaa !8
  %31 = shl i32 %30, 16
  %32 = load i32, ptr %3, align 4, !tbaa !8
  %33 = or i32 %32, %31
  store i32 %33, ptr %3, align 4, !tbaa !8
  %34 = load i32, ptr %2, align 4, !tbaa !8
  %35 = and i32 %34, 15
  %36 = zext i32 %35 to i64
  %37 = getelementptr inbounds nuw [256 x i32], ptr %1, i64 0, i64 %36
  %38 = load i32, ptr %37, align 4, !tbaa !8
  %39 = shl i32 %38, 24
  %40 = load i32, ptr %3, align 4, !tbaa !8
  %41 = or i32 %40, %39
  store i32 %41, ptr %3, align 4, !tbaa !8
  %42 = call i32 (ptr, ...) @printf(ptr noundef @.str.3)
  %43 = load ptr, ptr @stdout, align 8, !tbaa !178
  call void @Kit_PrintHexadecimal(ptr noundef %43, ptr noundef %3, i32 noundef 5)
  %44 = call i32 (ptr, ...) @printf(ptr noundef @.str.4)
  br label %45

45:                                               ; preds = %13
  %46 = load i32, ptr %2, align 4, !tbaa !8
  %47 = add i32 %46, 1
  store i32 %47, ptr %2, align 4, !tbaa !8
  br label %4, !llvm.loop !181

48:                                               ; preds = %4
  call void @llvm.lifetime.end.p0(i64 4, ptr %3) #8
  call void @llvm.lifetime.end.p0(i64 4, ptr %2) #8
  call void @llvm.lifetime.end.p0(i64 1024, ptr %1) #8
  ret void
}