; Function Attrs: nofree nounwind uwtable
define void @Kit_TruthCountMintermsPrecomp() local_unnamed_addr #5 {
  br label %1

1:                                                ; preds = %0, %Kit_PrintHexadecimal.exit
  %indvars.iv = phi i64 [ 0, %0 ], [ %indvars.iv.next, %Kit_PrintHexadecimal.exit ]
  %2 = and i64 %indvars.iv, 7
  %3 = icmp eq i64 %2, 0
  br i1 %3, label %4, label %5

4:                                                ; preds = %1
  %putchar = tail call i32 @putchar(i32 10)
  br label %5

5:                                                ; preds = %4, %1
  %6 = getelementptr inbounds nuw [256 x i32], ptr @__const.Kit_TruthCountMintermsPrecomp.bit_count, i64 0, i64 %indvars.iv
  %7 = load i32, ptr %6, align 4, !tbaa !3
  %8 = and i64 %indvars.iv, 85
  %9 = getelementptr inbounds nuw [256 x i32], ptr @__const.Kit_TruthCountMintermsPrecomp.bit_count, i64 0, i64 %8
  %10 = load i32, ptr %9, align 4, !tbaa !3
  %11 = shl i32 %10, 8
  %12 = or i32 %11, %7
  %13 = and i64 %indvars.iv, 51
  %14 = getelementptr inbounds nuw [256 x i32], ptr @__const.Kit_TruthCountMintermsPrecomp.bit_count, i64 0, i64 %13
  %15 = load i32, ptr %14, align 4, !tbaa !3
  %16 = shl i32 %15, 16
  %17 = or i32 %16, %12
  %18 = and i64 %indvars.iv, 15
  %19 = getelementptr inbounds nuw [256 x i32], ptr @__const.Kit_TruthCountMintermsPrecomp.bit_count, i64 0, i64 %18
  %20 = load i32, ptr %19, align 4, !tbaa !3
  %21 = shl i32 %20, 24
  %22 = or i32 %21, %17
  %23 = tail call i32 (ptr, ...) @printf(ptr noundef nonnull dereferenceable(1) @.str.3)
  %24 = load ptr, ptr @stdout, align 8, !tbaa !171
  br label %.lr.ph.i

.lr.ph.i:                                         ; preds = %34, %5
  %.013.in.i = phi i32 [ %.013.i, %34 ], [ 8, %5 ]
  %.013.i = add nsw i32 %.013.in.i, -1
  %25 = shl i32 %.013.i, 2
  %26 = and i32 %25, 28
  %27 = lshr i32 %22, %26
  %28 = and i32 %27, 15
  %29 = icmp samesign ult i32 %28, 10
  br i1 %29, label %30, label %32

30:                                               ; preds = %.lr.ph.i
  %31 = tail call i32 (ptr, ptr, ...) @fprintf(ptr noundef %24, ptr noundef nonnull @.str, i32 noundef %28) #13
  br label %34

32:                                               ; preds = %.lr.ph.i
  %33 = add nuw nsw i32 %28, 87
  %fputc.i = tail call i32 @fputc(i32 %33, ptr %24)
  br label %34

34:                                               ; preds = %32, %30
  %35 = icmp samesign ugt i32 %.013.in.i, 1
  br i1 %35, label %.lr.ph.i, label %Kit_PrintHexadecimal.exit, !llvm.loop !170

Kit_PrintHexadecimal.exit:                        ; preds = %34
  %36 = tail call i32 (ptr, ...) @printf(ptr noundef nonnull dereferenceable(1) @.str.4)
  %indvars.iv.next = add nuw nsw i64 %indvars.iv, 1
  %exitcond.not = icmp eq i64 %indvars.iv.next, 256
  br i1 %exitcond.not, label %37, label %1, !llvm.loop !174

37:                                               ; preds = %Kit_PrintHexadecimal.exit
  ret void
}